target datalayout = "e-m:e-p270:32:32-p271:32:32-p272:64:64-i64:64-i128:128-f80:128-n8:16:32:64-S128"
target triple = "x86_64-pc-linux-gnu"

; Function Attrs: mustprogress uwtable
define linkonce_odr hidden void @_ZN7mitsuba13EXRThreadPoolC2Ev(ptr noundef nonnull align 8 dereferenceable(8) %0) unnamed_addr #0 comdat align 2 {
  %2 = alloca ptr, align 8
  store ptr %0, ptr %2, align 8
  %3 = load ptr, ptr %2, align 8
  call void @_ZN13IlmThread_2_518ThreadPoolProviderC2Ev(ptr noundef nonnull align 8 dereferenceable(8) %3)
  store ptr getelementptr inbounds inrange(-16, 48) ({ [8 x ptr] }, ptr @_ZTVN7mitsuba13EXRThreadPoolE, i32 0, i32 0, i32 2), ptr %3, align 8
  ret void
}

; Function Attrs: mustprogress uwtable
define void @_ZN7mitsuba6Bitmap21static_initializationEv() #0 align 2 personality ptr @__gxx_personality_v0 {
  %1 = alloca ptr, align 8
  %2 = alloca i32, align 4
  %3 = call noundef nonnull align 8 dereferenceable(16) ptr @_ZN13IlmThread_2_510ThreadPool16globalThreadPoolEv()
  %4 = call noalias noundef nonnull ptr @_Znwm(i64 noundef 8) #30
  call void @llvm.memset.p0.i64(ptr align 8 %4, i8 0, i64 8, i1 false)
  invoke void @_ZN7mitsuba13EXRThreadPoolC2Ev(ptr noundef nonnull align 8 dereferenceable(8) %4)
          to label %5 unwind label %6

5:                                                ; preds = %0
  call void @_ZN13IlmThread_2_510ThreadPool17setThreadProviderEPNS_18ThreadPoolProviderE(ptr noundef nonnull align 8 dereferenceable(16) %3, ptr noundef %4)
  ret void

6:                                                ; preds = %0
  %7 = landingpad { ptr, i32 }
          cleanup
  %8 = extractvalue { ptr, i32 } %7, 0
  store ptr %8, ptr %1, align 8
  %9 = extractvalue { ptr, i32 } %7, 1
  store i32 %9, ptr %2, align 4
  call void @_ZdlPv(ptr noundef %4) #33
  br label %10

10:                                               ; preds = %6
  %11 = load ptr, ptr %1, align 8
  %12 = load i32, ptr %2, align 4
  %13 = insertvalue { ptr, i32 } poison, ptr %11, 0
  %14 = insertvalue { ptr, i32 } %13, i32 %12, 1
  resume { ptr, i32 } %14
}