; Function Attrs: mustprogress uwtable
define void @_ZN7mitsuba6Bitmap21static_initializationEv() local_unnamed_addr #0 align 2 personality ptr @__gxx_personality_v0 {
  %1 = tail call noundef nonnull align 8 dereferenceable(16) ptr @_ZN13IlmThread_2_510ThreadPool16globalThreadPoolEv()
  %2 = tail call noalias noundef nonnull dereferenceable(8) ptr @_Znwm(i64 noundef 8) #34
  store i64 0, ptr %2, align 8
  invoke void @_ZN13IlmThread_2_518ThreadPoolProviderC2Ev(ptr noundef nonnull align 8 dereferenceable(8) %2)
          to label %3 unwind label %4

3:                                                ; preds = %0
  store ptr getelementptr inbounds inrange(-16, 48) ({ [8 x ptr] }, ptr @_ZTVN7mitsuba13EXRThreadPoolE, i64 0, i32 0, i64 2), ptr %2, align 8
  tail call void @_ZN13IlmThread_2_510ThreadPool17setThreadProviderEPNS_18ThreadPoolProviderE(ptr noundef nonnull align 8 dereferenceable(16) %1, ptr noundef nonnull %2)
  ret void

4:                                                ; preds = %0
  %5 = landingpad { ptr, i32 }
          cleanup
  tail call void @_ZdlPv(ptr noundef nonnull %2) #35
  resume { ptr, i32 } %5
}